; Function Attrs: mustprogress nounwind uwtable
define hidden void @_ZN12HeapDumpDCmdC2EP12outputStreamb(ptr noundef nonnull align 8 dereferenceable(344) %0, ptr noundef %1, i1 noundef zeroext %2) unnamed_addr #0 align 2 {
  %4 = zext i1 %2 to i8
  %5 = getelementptr inbounds i8, ptr %0, i64 8
  store ptr %1, ptr %5, align 8
  %6 = getelementptr inbounds i8, ptr %0, i64 16
  store i8 %4, ptr %6, align 8
  %7 = getelementptr inbounds i8, ptr %0, i64 24
  tail call void @llvm.memset.p0.i64(ptr noundef nonnull align 8 dereferenceable(16) %7, i8 0, i64 16, i1 false)
  store ptr getelementptr inbounds inrange(-16, 56) (i8, ptr @_ZTV12HeapDumpDCmd, i64 16), ptr %0, align 8
  %8 = getelementptr inbounds i8, ptr %0, i64 40
  %9 = getelementptr inbounds i8, ptr %0, i64 48
  store ptr null, ptr %9, align 8
  %10 = getelementptr inbounds i8, ptr %0, i64 56
  store ptr @.str.47, ptr %10, align 8
  %11 = getelementptr inbounds i8, ptr %0, i64 64
  store ptr @.str.48, ptr %11, align 8
  %12 = getelementptr inbounds i8, ptr %0, i64 72
  store ptr @.str.9, ptr %12, align 8
  %13 = getelementptr inbounds i8, ptr %0, i64 80
  store ptr null, ptr %13, align 8
  %14 = getelementptr inbounds i8, ptr %0, i64 88
  store i8 0, ptr %14, align 8
  %15 = getelementptr inbounds i8, ptr %0, i64 89
  store i8 1, ptr %15, align 1
  %16 = getelementptr inbounds i8, ptr %0, i64 90
  store i8 0, ptr %16, align 2
  store ptr getelementptr inbounds inrange(-16, 40) (i8, ptr @_ZTV12DCmdArgumentIPcE, i64 16), ptr %8, align 8
  %17 = getelementptr inbounds i8, ptr %0, i64 104
  %18 = getelementptr inbounds i8, ptr %0, i64 112
  store ptr null, ptr %18, align 8
  %19 = getelementptr inbounds i8, ptr %0, i64 120
  store ptr @.str, ptr %19, align 8
  %20 = getelementptr inbounds i8, ptr %0, i64 128
  store ptr @.str.49, ptr %20, align 8
  %21 = getelementptr inbounds i8, ptr %0, i64 136
  store ptr @.str.5, ptr %21, align 8
  %22 = getelementptr inbounds i8, ptr %0, i64 144
  store ptr @.str.6, ptr %22, align 8
  %23 = getelementptr inbounds i8, ptr %0, i64 152
  store i8 0, ptr %23, align 8
  %24 = getelementptr inbounds i8, ptr %0, i64 153
  store i8 0, ptr %24, align 1
  %25 = getelementptr inbounds i8, ptr %0, i64 154
  store i8 0, ptr %25, align 2
  store ptr getelementptr inbounds inrange(-16, 40) (i8, ptr @_ZTV12DCmdArgumentIbE, i64 16), ptr %17, align 8
  %26 = getelementptr inbounds i8, ptr %0, i64 160
  %27 = getelementptr inbounds i8, ptr %0, i64 168
  store ptr null, ptr %27, align 8
  %28 = getelementptr inbounds i8, ptr %0, i64 176
  store ptr @.str.50, ptr %28, align 8
  %29 = getelementptr inbounds i8, ptr %0, i64 184
  store ptr @.str.51, ptr %29, align 8
  %30 = getelementptr inbounds i8, ptr %0, i64 192
  store ptr @.str.52, ptr %30, align 8
  %31 = getelementptr inbounds i8, ptr %0, i64 200
  store ptr @.str.53, ptr %31, align 8
  %32 = getelementptr inbounds i8, ptr %0, i64 208
  store i8 0, ptr %32, align 8
  %33 = getelementptr inbounds i8, ptr %0, i64 209
  store i8 0, ptr %33, align 1
  %34 = getelementptr inbounds i8, ptr %0, i64 210
  store i8 0, ptr %34, align 2
  store ptr getelementptr inbounds inrange(-16, 40) (i8, ptr @_ZTV12DCmdArgumentIlE, i64 16), ptr %26, align 8
  %35 = getelementptr inbounds i8, ptr %0, i64 224
  %36 = getelementptr inbounds i8, ptr %0, i64 232
  store ptr null, ptr %36, align 8
  %37 = getelementptr inbounds i8, ptr %0, i64 240
  store ptr @.str.54, ptr %37, align 8
  %38 = getelementptr inbounds i8, ptr %0, i64 248
  store ptr @.str.55, ptr %38, align 8
  %39 = getelementptr inbounds i8, ptr %0, i64 256
  store ptr @.str.5, ptr %39, align 8
  %40 = getelementptr inbounds i8, ptr %0, i64 264
  store ptr @.str.6, ptr %40, align 8
  %41 = getelementptr inbounds i8, ptr %0, i64 272
  store i8 0, ptr %41, align 8
  %42 = getelementptr inbounds i8, ptr %0, i64 273
  store i8 0, ptr %42, align 1
  %43 = getelementptr inbounds i8, ptr %0, i64 274
  store i8 0, ptr %43, align 2
  store ptr getelementptr inbounds inrange(-16, 40) (i8, ptr @_ZTV12DCmdArgumentIbE, i64 16), ptr %35, align 8
  %44 = getelementptr inbounds i8, ptr %0, i64 280
  %45 = getelementptr inbounds i8, ptr %0, i64 288
  store ptr null, ptr %45, align 8
  %46 = getelementptr inbounds i8, ptr %0, i64 296
  store ptr @.str.56, ptr %46, align 8
  %47 = getelementptr inbounds i8, ptr %0, i64 304
  store ptr @.str.57, ptr %47, align 8
  %48 = getelementptr inbounds i8, ptr %0, i64 312
  store ptr @.str.52, ptr %48, align 8
  %49 = getelementptr inbounds i8, ptr %0, i64 320
  store ptr @.str.53, ptr %49, align 8
  %50 = getelementptr inbounds i8, ptr %0, i64 328
  store i8 0, ptr %50, align 8
  %51 = getelementptr inbounds i8, ptr %0, i64 329
  store i8 0, ptr %51, align 1
  %52 = getelementptr inbounds i8, ptr %0, i64 330
  store i8 0, ptr %52, align 2
  store ptr getelementptr inbounds inrange(-16, 40) (i8, ptr @_ZTV12DCmdArgumentIlE, i64 16), ptr %44, align 8
  tail call void @_ZN10DCmdParser15add_dcmd_optionEP15GenDCmdArgument(ptr noundef nonnull align 8 dereferenceable(16) %7, ptr noundef nonnull %17) #17
  tail call void @_ZN10DCmdParser17add_dcmd_argumentEP15GenDCmdArgument(ptr noundef nonnull align 8 dereferenceable(16) %7, ptr noundef nonnull %8) #17
  tail call void @_ZN10DCmdParser15add_dcmd_optionEP15GenDCmdArgument(ptr noundef nonnull align 8 dereferenceable(16) %7, ptr noundef nonnull %26) #17
  tail call void @_ZN10DCmdParser15add_dcmd_optionEP15GenDCmdArgument(ptr noundef nonnull align 8 dereferenceable(16) %7, ptr noundef nonnull %35) #17
  tail call void @_ZN10DCmdParser15add_dcmd_optionEP15GenDCmdArgument(ptr noundef nonnull align 8 dereferenceable(16) %7, ptr noundef nonnull %44) #17
  ret void
}